target datalayout = "e-m:e-p270:32:32-p271:32:32-p272:64:64-i64:64-i128:128-f80:128-n8:16:32:64-S128"
target triple = "x86_64-pc-linux-gnu"

%union.UElement = type { ptr }
%"struct.std::atomic" = type { %"struct.std::__atomic_base" }
%"struct.std::__atomic_base" = type { i32 }
%"class.icu_77::UnifiedCache" = type { %"class.icu_77::UnifiedCacheBase", ptr, i32, i32, i32, i32, i32, i64, ptr }
%"class.icu_77::UnifiedCacheBase" = type { %"class.icu_77::UObject" }
%"class.icu_77::UObject" = type { ptr }
%"class.icu_77::SharedObject" = type { %"class.icu_77::UObject", i32, %"struct.std::atomic", ptr }
%struct.UHashElement = type { i32, %union.UElement, %union.UElement }
%"class.icu_77::CacheKeyBase" = type <{ %"class.icu_77::UObject", i32, i8, [3 x i8] }>

@_ZL25gInProgressValueAddedCond = internal global ptr null, align 8

; Function Attrs: inlinehint mustprogress uwtable
define linkonce_odr noundef signext i8 @_ZNK6icu_7712SharedObject16noHardReferencesEv(ptr noundef nonnull align 8 dereferenceable(24) %0) #2 comdat align 2 {
  %2 = alloca ptr, align 8
  store ptr %0, ptr %2, align 8, !tbaa !46
  %3 = load ptr, ptr %2, align 8
  %4 = call noundef i32 @_ZNK6icu_7712SharedObject11getRefCountEv(ptr noundef nonnull align 8 dereferenceable(24) %3)
  %5 = icmp eq i32 %4, 0
  %6 = zext i1 %5 to i8
  ret i8 %6
}

; Function Attrs: mustprogress uwtable
define void @_ZNK6icu_7712UnifiedCache13removeSoftRefEPKNS_12SharedObjectE(ptr noundef nonnull align 8 dereferenceable(56) %0, ptr noundef %1) #0 align 2 {
  %3 = alloca ptr, align 8
  %4 = alloca ptr, align 8
  store ptr %0, ptr %3, align 8, !tbaa !14
  store ptr %1, ptr %4, align 8, !tbaa !46
  %5 = load ptr, ptr %3, align 8
  %6 = load ptr, ptr %4, align 8, !tbaa !46
  %7 = getelementptr inbounds nuw %"class.icu_77::SharedObject", ptr %6, i32 0, i32 1
  %8 = load i32, ptr %7, align 8, !tbaa !41
  %9 = add nsw i32 %8, -1
  store i32 %9, ptr %7, align 8, !tbaa !41
  %10 = icmp eq i32 %9, 0
  br i1 %10, label %11, label %30

11:                                               ; preds = %2
  %12 = getelementptr inbounds nuw %"class.icu_77::UnifiedCache", ptr %5, i32 0, i32 3
  %13 = load i32, ptr %12, align 4, !tbaa !35
  %14 = add nsw i32 %13, -1
  store i32 %14, ptr %12, align 4, !tbaa !35
  %15 = load ptr, ptr %4, align 8, !tbaa !46
  %16 = call noundef signext i8 @_ZNK6icu_7712SharedObject16noHardReferencesEv(ptr noundef nonnull align 8 dereferenceable(24) %15)
  %17 = icmp ne i8 %16, 0
  br i1 %17, label %18, label %26

18:                                               ; preds = %11
  %19 = load ptr, ptr %4, align 8, !tbaa !46
  %20 = icmp eq ptr %19, null
  br i1 %20, label %25, label %21

21:                                               ; preds = %18
  %22 = load ptr, ptr %19, align 8, !tbaa !9
  %23 = getelementptr inbounds ptr, ptr %22, i64 1
  %24 = load ptr, ptr %23, align 8
  call void %24(ptr noundef nonnull align 8 dereferenceable(24) %19) #12
  br label %25

25:                                               ; preds = %21, %18
  br label %29

26:                                               ; preds = %11
  %27 = load ptr, ptr %4, align 8, !tbaa !46
  %28 = getelementptr inbounds nuw %"class.icu_77::SharedObject", ptr %27, i32 0, i32 3
  store ptr null, ptr %28, align 8, !tbaa !44
  br label %29

29:                                               ; preds = %26, %25
  br label %30

30:                                               ; preds = %29, %2
  ret void
}

; Function Attrs: mustprogress nounwind uwtable
define void @_ZNK6icu_7712UnifiedCache16_registerPrimaryEPKNS_12CacheKeyBaseEPKNS_12SharedObjectE(ptr noundef nonnull align 8 dereferenceable(56) %0, ptr noundef %1, ptr noundef %2) #3 align 2 {
  %4 = alloca ptr, align 8
  %5 = alloca ptr, align 8
  %6 = alloca ptr, align 8
  store ptr %0, ptr %4, align 8, !tbaa !14
  store ptr %1, ptr %5, align 8, !tbaa !6
  store ptr %2, ptr %6, align 8, !tbaa !46
  %7 = load ptr, ptr %4, align 8
  %8 = load ptr, ptr %5, align 8, !tbaa !6
  %9 = getelementptr inbounds nuw %"class.icu_77::CacheKeyBase", ptr %8, i32 0, i32 2
  store i8 1, ptr %9, align 4, !tbaa !62
  %10 = load ptr, ptr %6, align 8, !tbaa !46
  %11 = getelementptr inbounds nuw %"class.icu_77::SharedObject", ptr %10, i32 0, i32 3
  store ptr %7, ptr %11, align 8, !tbaa !44
  %12 = getelementptr inbounds nuw %"class.icu_77::UnifiedCache", ptr %7, i32 0, i32 3
  %13 = load i32, ptr %12, align 4, !tbaa !35
  %14 = add nsw i32 %13, 1
  store i32 %14, ptr %12, align 4, !tbaa !35
  %15 = getelementptr inbounds nuw %"class.icu_77::UnifiedCache", ptr %7, i32 0, i32 4
  %16 = load i32, ptr %15, align 8, !tbaa !36
  %17 = add nsw i32 %16, 1
  store i32 %17, ptr %15, align 8, !tbaa !36
  ret void
}

; Function Attrs: mustprogress uwtable
define void @_ZNK6icu_7712UnifiedCache4_putEPK12UHashElementPKNS_12SharedObjectE10UErrorCode(ptr noundef nonnull align 8 dereferenceable(56) %0, ptr noundef %1, ptr noundef %2, i32 noundef %3) #0 align 2 {
  %5 = alloca ptr, align 8
  %6 = alloca ptr, align 8
  %7 = alloca ptr, align 8
  %8 = alloca i32, align 4
  %9 = alloca ptr, align 8
  %10 = alloca ptr, align 8
  %11 = alloca ptr, align 8
  store ptr %0, ptr %5, align 8, !tbaa !14
  store ptr %1, ptr %6, align 8, !tbaa !56
  store ptr %2, ptr %7, align 8, !tbaa !46
  store i32 %3, ptr %8, align 4, !tbaa !12
  %12 = load ptr, ptr %5, align 8
  call void @llvm.lifetime.start.p0(i64 8, ptr %9) #12
  %13 = load ptr, ptr %6, align 8, !tbaa !56
  %14 = getelementptr inbounds nuw %struct.UHashElement, ptr %13, i32 0, i32 2
  %15 = load ptr, ptr %14, align 8, !tbaa !3
  store ptr %15, ptr %9, align 8, !tbaa !6
  call void @llvm.lifetime.start.p0(i64 8, ptr %10) #12
  %16 = load ptr, ptr %6, align 8, !tbaa !56
  %17 = getelementptr inbounds nuw %struct.UHashElement, ptr %16, i32 0, i32 1
  %18 = load ptr, ptr %17, align 8, !tbaa !3
  store ptr %18, ptr %10, align 8, !tbaa !46
  %19 = load i32, ptr %8, align 4, !tbaa !12
  %20 = load ptr, ptr %9, align 8, !tbaa !6
  %21 = getelementptr inbounds nuw %"class.icu_77::CacheKeyBase", ptr %20, i32 0, i32 1
  store i32 %19, ptr %21, align 8, !tbaa !60
  %22 = load ptr, ptr %7, align 8, !tbaa !46
  %23 = getelementptr inbounds nuw %"class.icu_77::SharedObject", ptr %22, i32 0, i32 1
  %24 = load i32, ptr %23, align 8, !tbaa !41
  %25 = icmp eq i32 %24, 0
  br i1 %25, label %26, label %29

26:                                               ; preds = %4
  %27 = load ptr, ptr %9, align 8, !tbaa !6
  %28 = load ptr, ptr %7, align 8, !tbaa !46
  call void @_ZNK6icu_7712UnifiedCache16_registerPrimaryEPKNS_12CacheKeyBaseEPKNS_12SharedObjectE(ptr noundef nonnull align 8 dereferenceable(56) %12, ptr noundef %27, ptr noundef %28)
  br label %29

29:                                               ; preds = %26, %4
  %30 = load ptr, ptr %7, align 8, !tbaa !46
  %31 = getelementptr inbounds nuw %"class.icu_77::SharedObject", ptr %30, i32 0, i32 1
  %32 = load i32, ptr %31, align 8, !tbaa !41
  %33 = add nsw i32 %32, 1
  store i32 %33, ptr %31, align 8, !tbaa !41
  call void @llvm.lifetime.start.p0(i64 8, ptr %11) #12
  %34 = load ptr, ptr %6, align 8, !tbaa !56
  store ptr %34, ptr %11, align 8, !tbaa !56
  %35 = load ptr, ptr %7, align 8, !tbaa !46
  %36 = load ptr, ptr %11, align 8, !tbaa !56
  %37 = getelementptr inbounds nuw %struct.UHashElement, ptr %36, i32 0, i32 1
  store ptr %35, ptr %37, align 8, !tbaa !3
  %38 = load ptr, ptr %10, align 8, !tbaa !46
  call void @_ZNK6icu_7712UnifiedCache13removeSoftRefEPKNS_12SharedObjectE(ptr noundef nonnull align 8 dereferenceable(56) %12, ptr noundef %38)
  %39 = load ptr, ptr @_ZL25gInProgressValueAddedCond, align 8, !tbaa !25
  call void @_ZNSt18condition_variable10notify_allEv(ptr noundef nonnull align 8 dereferenceable(48) %39) #12
  call void @llvm.lifetime.end.p0(i64 8, ptr %11) #12
  call void @llvm.lifetime.end.p0(i64 8, ptr %10) #12
  call void @llvm.lifetime.end.p0(i64 8, ptr %9) #12
  ret void
}