; Function Attrs: mustprogress uwtable
define void @_ZNK6icu_7712UnifiedCache4_putEPK12UHashElementPKNS_12SharedObjectE10UErrorCode(ptr noundef nonnull align 8 dereferenceable(56) %0, ptr noundef captures(none) %1, ptr noundef %2, i32 noundef %3) local_unnamed_addr #0 align 2 {
  %5 = getelementptr inbounds nuw i8, ptr %1, i64 16
  %6 = load ptr, ptr %5, align 8, !tbaa !41
  %7 = getelementptr inbounds nuw i8, ptr %1, i64 8
  %8 = load ptr, ptr %7, align 8, !tbaa !41
  %9 = getelementptr inbounds nuw i8, ptr %6, i64 8
  store i32 %3, ptr %9, align 8, !tbaa !42
  %10 = getelementptr inbounds nuw i8, ptr %2, i64 8
  %11 = load i32, ptr %10, align 8, !tbaa !34
  %12 = icmp eq i32 %11, 0
  br i1 %12, label %13, label %22

13:                                               ; preds = %4
  %14 = getelementptr inbounds nuw i8, ptr %6, i64 12
  store i8 1, ptr %14, align 4, !tbaa !44
  %15 = getelementptr inbounds nuw i8, ptr %2, i64 16
  store ptr %0, ptr %15, align 8, !tbaa !37
  %16 = getelementptr inbounds nuw i8, ptr %0, i64 20
  %17 = load i32, ptr %16, align 4, !tbaa !29
  %18 = add nsw i32 %17, 1
  store i32 %18, ptr %16, align 4, !tbaa !29
  %19 = getelementptr inbounds nuw i8, ptr %0, i64 24
  %20 = load i32, ptr %19, align 8, !tbaa !30
  %21 = add nsw i32 %20, 1
  store i32 %21, ptr %19, align 8, !tbaa !30
  br label %22

22:                                               ; preds = %13, %4
  %23 = add nsw i32 %11, 1
  store i32 %23, ptr %10, align 8, !tbaa !34
  store ptr %2, ptr %7, align 8, !tbaa !41
  %24 = getelementptr inbounds nuw i8, ptr %8, i64 8
  %25 = load i32, ptr %24, align 8, !tbaa !34
  %26 = add nsw i32 %25, -1
  store i32 %26, ptr %24, align 8, !tbaa !34
  %27 = icmp eq i32 %26, 0
  br i1 %27, label %28, label %_ZNK6icu_7712UnifiedCache13removeSoftRefEPKNS_12SharedObjectE.exit

28:                                               ; preds = %22
  %29 = getelementptr inbounds nuw i8, ptr %0, i64 20
  %30 = load i32, ptr %29, align 4, !tbaa !29
  %31 = add nsw i32 %30, -1
  store i32 %31, ptr %29, align 4, !tbaa !29
  %32 = tail call noundef i32 @_ZNK6icu_7712SharedObject11getRefCountEv(ptr noundef nonnull align 8 dereferenceable(24) %8)
  %.not.i = icmp eq i32 %32, 0
  br i1 %.not.i, label %33, label %37

33:                                               ; preds = %28
  %34 = load ptr, ptr %8, align 8, !tbaa !3
  %35 = getelementptr inbounds nuw i8, ptr %34, i64 8
  %36 = load ptr, ptr %35, align 8
  tail call void %36(ptr noundef nonnull align 8 dereferenceable(24) %8) #16
  br label %_ZNK6icu_7712UnifiedCache13removeSoftRefEPKNS_12SharedObjectE.exit

37:                                               ; preds = %28
  %38 = getelementptr inbounds nuw i8, ptr %8, i64 16
  store ptr null, ptr %38, align 8, !tbaa !37
  br label %_ZNK6icu_7712UnifiedCache13removeSoftRefEPKNS_12SharedObjectE.exit

_ZNK6icu_7712UnifiedCache13removeSoftRefEPKNS_12SharedObjectE.exit: ; preds = %22, %33, %37
  %39 = load ptr, ptr @_ZL25gInProgressValueAddedCond, align 8, !tbaa !12
  tail call void @_ZNSt18condition_variable10notify_allEv(ptr noundef nonnull align 8 dereferenceable(48) %39) #16
  ret void
}